; Function Attrs: mustprogress nounwind uwtable
define hidden noundef zeroext i1 @_ZN14LibraryCallKit24inline_math_negateExactLEv(ptr noundef nonnull align 8 dereferenceable(108) %0) local_unnamed_addr #0 align 2 {
  %2 = getelementptr inbounds i8, ptr %0, i64 32
  %3 = load ptr, ptr %2, align 8
  %4 = tail call noundef ptr @_ZN11PhaseValues7longconEl(ptr noundef nonnull align 8 dereferenceable(2400) %3, i64 noundef 0) #13
  %5 = getelementptr inbounds i8, ptr %0, i64 40
  %6 = load ptr, ptr %5, align 8
  %7 = getelementptr inbounds i8, ptr %6, i64 56
  %8 = load ptr, ptr %7, align 8
  %9 = getelementptr inbounds i8, ptr %8, i64 16
  %10 = load i32, ptr %9, align 8
  %11 = getelementptr inbounds i8, ptr %8, i64 32
  %12 = load i32, ptr %11, align 8
  %13 = add i32 %12, %10
  %14 = getelementptr inbounds i8, ptr %6, i64 8
  %15 = load ptr, ptr %14, align 8
  %16 = zext i32 %13 to i64
  %17 = getelementptr inbounds ptr, ptr %15, i64 %16
  %18 = load ptr, ptr %17, align 8
  %19 = tail call noundef zeroext i1 @_ZN14LibraryCallKit20inline_math_overflowI16OverflowSubLNodeEEbP4NodeS3_(ptr noundef nonnull align 8 dereferenceable(108) %0, ptr noundef %4, ptr noundef %18)
  ret i1 %19
}